target datalayout = "e-m:e-p270:32:32-p271:32:32-p272:64:64-i64:64-i128:128-f80:128-n8:16:32:64-S128"
target triple = "x86_64-pc-linux-gnu"

%struct._capture_file = type { ptr, i32, ptr, ptr, i8, i8, i8, i64, i16, i32, i32, i32, ptr, i32, i64, i32, i32, i32, i32, i8, i32, %struct.nstime_t, i32, ptr, ptr, ptr, i8, i8, i32, ptr, i8, i8, i8, i8, i8, i32, i32, i8, ptr, i32, i32, i8, %struct.packet_provider_data, i32, i32, %struct.epan_column_info, ptr, ptr, ptr, %struct.wtap_rec, %struct.Buffer, ptr, i64, i32 }
%struct.nstime_t = type { i64, i32 }
%struct.packet_provider_data = type { ptr, ptr, ptr, ptr, ptr, ptr }
%struct.epan_column_info = type { ptr, i32, ptr, ptr, ptr, %struct.col_expr_t, i8, ptr }
%struct.col_expr_t = type { ptr, ptr }
%struct.wtap_rec = type { i32, i32, i32, %struct.nstime_t, i32, %struct.nstime_t, i8, %union.anon, ptr, i8, %struct.Buffer, %struct.Buffer }
%union.anon = type { %struct.wtap_packet_header }
%struct.wtap_packet_header = type { i32, i32, i32, i32, %union.wtap_pseudo_header }
%union.wtap_pseudo_header = type { %struct.erf_mc_phdr }
%struct.erf_mc_phdr = type { %struct.erf_phdr, [16 x %struct.erf_ehdr], %union.anon.1 }
%struct.erf_phdr = type { i64, i8, i8, i16, i16, i16 }
%struct.erf_ehdr = type { i64 }
%union.anon.1 = type { i32 }
%struct.Buffer = type { ptr, i64, i64, i64 }
%struct.packet_provider_funcs = type { ptr, ptr, ptr, ptr }

@perform_two_pass_analysis = internal global i8 0, align 1
@tshark_epan_new.funcs = internal constant %struct.packet_provider_funcs { ptr @cap_file_provider_get_frame_ts, ptr @cap_file_provider_get_interface_name, ptr @cap_file_provider_get_interface_description, ptr null }, align 8

; Function Attrs: null_pointer_is_valid sspstrong uwtable
define internal ptr @tshark_epan_new(ptr noundef %0) #0 {
  %2 = alloca ptr, align 8
  store ptr %0, ptr %2, align 8
  %3 = load ptr, ptr %2, align 8
  %4 = getelementptr inbounds nuw %struct._capture_file, ptr %3, i32 0, i32 42
  %5 = call ptr @epan_new(ptr noundef %4, ptr noundef @tshark_epan_new.funcs)
  ret ptr %5
}

; Function Attrs: null_pointer_is_valid sspstrong uwtable
define hidden i32 @cf_open(ptr noundef %0, ptr noundef %1, i32 noundef %2, i1 noundef zeroext %3, ptr noundef %4) #0 {
  %6 = alloca i32, align 4
  %7 = alloca ptr, align 8
  %8 = alloca ptr, align 8
  %9 = alloca i32, align 4
  %10 = alloca i8, align 1
  %11 = alloca ptr, align 8
  %12 = alloca ptr, align 8
  %13 = alloca ptr, align 8
  %14 = alloca i32, align 4
  store ptr %0, ptr %7, align 8
  store ptr %1, ptr %8, align 8
  store i32 %2, ptr %9, align 4
  %15 = zext i1 %3 to i8
  store i8 %15, ptr %10, align 1
  store ptr %4, ptr %11, align 8
  call void @llvm.lifetime.start.p0(i64 8, ptr %12) #19
  call void @llvm.lifetime.start.p0(i64 8, ptr %13) #19
  %16 = load ptr, ptr %8, align 8
  %17 = load i32, ptr %9, align 4
  %18 = load ptr, ptr %11, align 8
  %19 = load i8, ptr @perform_two_pass_analysis, align 1, !range !10, !noundef !11
  %20 = trunc i8 %19 to i1
  %21 = call ptr @wtap_open_offline(ptr noundef %16, i32 noundef %17, ptr noundef %18, ptr noundef %13, i1 noundef zeroext %20)
  store ptr %21, ptr %12, align 8
  %22 = load ptr, ptr %12, align 8
  %23 = icmp eq ptr %22, null
  br i1 %23, label %24, label %25

24:                                               ; preds = %5
  br label %99

25:                                               ; preds = %5
  %26 = load ptr, ptr %12, align 8
  %27 = load ptr, ptr %7, align 8
  %28 = getelementptr inbounds nuw %struct._capture_file, ptr %27, i32 0, i32 42
  %29 = getelementptr inbounds nuw %struct.packet_provider_data, ptr %28, i32 0, i32 0
  store ptr %26, ptr %29, align 8
  %30 = load ptr, ptr %7, align 8
  %31 = getelementptr inbounds nuw %struct._capture_file, ptr %30, i32 0, i32 7
  store i64 0, ptr %31, align 8
  %32 = load ptr, ptr %8, align 8
  %33 = call noalias ptr @g_strdup(ptr noundef %32)
  %34 = load ptr, ptr %7, align 8
  %35 = getelementptr inbounds nuw %struct._capture_file, ptr %34, i32 0, i32 2
  store ptr %33, ptr %35, align 8
  %36 = load i8, ptr %10, align 1, !range !10, !noundef !11
  %37 = trunc i8 %36 to i1
  %38 = load ptr, ptr %7, align 8
  %39 = getelementptr inbounds nuw %struct._capture_file, ptr %38, i32 0, i32 4
  %40 = zext i1 %37 to i8
  store i8 %40, ptr %39, align 8
  %41 = load ptr, ptr %7, align 8
  %42 = getelementptr inbounds nuw %struct._capture_file, ptr %41, i32 0, i32 5
  store i8 0, ptr %42, align 1
  %43 = load ptr, ptr %7, align 8
  %44 = getelementptr inbounds nuw %struct._capture_file, ptr %43, i32 0, i32 42
  %45 = getelementptr inbounds nuw %struct.packet_provider_data, ptr %44, i32 0, i32 0
  %46 = load ptr, ptr %45, align 8
  %47 = call i32 @wtap_file_type_subtype(ptr noundef %46)
  %48 = trunc i32 %47 to i16
  %49 = load ptr, ptr %7, align 8
  %50 = getelementptr inbounds nuw %struct._capture_file, ptr %49, i32 0, i32 8
  store i16 %48, ptr %50, align 8
  %51 = load i32, ptr %9, align 4
  %52 = load ptr, ptr %7, align 8
  %53 = getelementptr inbounds nuw %struct._capture_file, ptr %52, i32 0, i32 9
  store i32 %51, ptr %53, align 4
  %54 = load ptr, ptr %7, align 8
  %55 = getelementptr inbounds nuw %struct._capture_file, ptr %54, i32 0, i32 13
  store i32 0, ptr %55, align 8
  %56 = load ptr, ptr %7, align 8
  %57 = getelementptr inbounds nuw %struct._capture_file, ptr %56, i32 0, i32 19
  store i8 0, ptr %57, align 8
  %58 = load ptr, ptr %7, align 8
  %59 = getelementptr inbounds nuw %struct._capture_file, ptr %58, i32 0, i32 20
  store i32 0, ptr %59, align 4
  %60 = load ptr, ptr %7, align 8
  %61 = getelementptr inbounds nuw %struct._capture_file, ptr %60, i32 0, i32 42
  %62 = getelementptr inbounds nuw %struct.packet_provider_data, ptr %61, i32 0, i32 0
  %63 = load ptr, ptr %62, align 8
  %64 = call i32 @wtap_snapshot_length(ptr noundef %63)
  %65 = load ptr, ptr %7, align 8
  %66 = getelementptr inbounds nuw %struct._capture_file, ptr %65, i32 0, i32 22
  store i32 %64, ptr %66, align 8
  %67 = load ptr, ptr %7, align 8
  %68 = getelementptr inbounds nuw %struct._capture_file, ptr %67, i32 0, i32 21
  call void @nstime_set_zero(ptr noundef %68)
  %69 = load ptr, ptr %7, align 8
  %70 = getelementptr inbounds nuw %struct._capture_file, ptr %69, i32 0, i32 42
  %71 = getelementptr inbounds nuw %struct.packet_provider_data, ptr %70, i32 0, i32 1
  store ptr null, ptr %71, align 8
  %72 = load ptr, ptr %7, align 8
  %73 = getelementptr inbounds nuw %struct._capture_file, ptr %72, i32 0, i32 42
  %74 = getelementptr inbounds nuw %struct.packet_provider_data, ptr %73, i32 0, i32 2
  store ptr null, ptr %74, align 8
  %75 = load ptr, ptr %7, align 8
  %76 = getelementptr inbounds nuw %struct._capture_file, ptr %75, i32 0, i32 42
  %77 = getelementptr inbounds nuw %struct.packet_provider_data, ptr %76, i32 0, i32 3
  store ptr null, ptr %77, align 8
  %78 = load ptr, ptr %7, align 8
  %79 = getelementptr inbounds nuw %struct._capture_file, ptr %78, i32 0, i32 1
  store i32 2, ptr %79, align 8
  %80 = load ptr, ptr %7, align 8
  %81 = getelementptr inbounds nuw %struct._capture_file, ptr %80, i32 0, i32 0
  %82 = load ptr, ptr %81, align 8
  call void @epan_free(ptr noundef %82)
  %83 = load ptr, ptr %7, align 8
  %84 = call ptr @tshark_epan_new(ptr noundef %83)
  %85 = load ptr, ptr %7, align 8
  %86 = getelementptr inbounds nuw %struct._capture_file, ptr %85, i32 0, i32 0
  store ptr %84, ptr %86, align 8
  %87 = load ptr, ptr %7, align 8
  %88 = getelementptr inbounds nuw %struct._capture_file, ptr %87, i32 0, i32 42
  %89 = getelementptr inbounds nuw %struct.packet_provider_data, ptr %88, i32 0, i32 0
  %90 = load ptr, ptr %89, align 8
  call void @wtap_set_cb_new_ipv4(ptr noundef %90, ptr noundef @add_ipv4_name)
  %91 = load ptr, ptr %7, align 8
  %92 = getelementptr inbounds nuw %struct._capture_file, ptr %91, i32 0, i32 42
  %93 = getelementptr inbounds nuw %struct.packet_provider_data, ptr %92, i32 0, i32 0
  %94 = load ptr, ptr %93, align 8
  call void @wtap_set_cb_new_ipv6(ptr noundef %94, ptr noundef @add_ipv6_name)
  %95 = load ptr, ptr %7, align 8
  %96 = getelementptr inbounds nuw %struct._capture_file, ptr %95, i32 0, i32 42
  %97 = getelementptr inbounds nuw %struct.packet_provider_data, ptr %96, i32 0, i32 0
  %98 = load ptr, ptr %97, align 8
  call void @wtap_set_cb_new_secrets(ptr noundef %98, ptr noundef @secrets_wtap_callback)
  store i32 0, ptr %6, align 4
  store i32 1, ptr %14, align 4
  br label %104

99:                                               ; preds = %24
  %100 = load ptr, ptr %8, align 8
  %101 = load ptr, ptr %11, align 8
  %102 = load i32, ptr %101, align 4
  %103 = load ptr, ptr %13, align 8
  call void @cfile_open_failure_message(ptr noundef %100, i32 noundef %102, ptr noundef %103)
  store i32 1, ptr %6, align 4
  store i32 1, ptr %14, align 4
  br label %104

104:                                              ; preds = %99, %25
  call void @llvm.lifetime.end.p0(i64 8, ptr %13) #19
  call void @llvm.lifetime.end.p0(i64 8, ptr %12) #19
  %105 = load i32, ptr %6, align 4
  ret i32 %105
}